Archive member included because of file (symbol)

../sbl6/segalib/lib/sega_int.a(int.o)
                              ../sbl6/segasmp/v_blank/set_vb.o (INT_SetScuFunc)
../sbl6/segalib/lib/sega_int.a(int_trmp.o)
                              ../sbl6/segalib/lib/sega_int.a(int.o) (__interrupt_handler0)
../sbl6/segalib/lib/sega_spr.a(spr_2c.o)
                              main.o (SPR_2Initial)
../sbl6/segalib/lib/sega_spr.a(spr_slv.o)
                              ../sbl6/segalib/lib/sega_spr.a(spr_2c.o) (SPR_InitSlaveSH)
../sbl6/segalib/lib/sega_spr.a(spr_1c.o)
                              ../sbl6/segalib/lib/sega_spr.a(spr_2c.o) (SPR_Initial)
../sbl6/segalib/lib/sega_spr.a(spr_2a.o)
                              ../sbl6/segalib/lib/sega_spr.a(spr_2c.o) (SPR_2SetDrawPrty)
../sbl6/segalib/lib/sega_scl.a(scl_vblv.o)
                              ../sbl6/segalib/lib/sega_spr.a(spr_1c.o) (SpFrameChgMode)
../sbl6/segalib/lib/sega_scl.a(scl_func.o)
                              main.o (SCL_Vdp2Init)
../sbl6/segalib/lib/sega_scl.a(scl_back.o)
                              main.o (SCL_SetBack)
../sbl6/segalib/lib/sega_scl.a(scl_pr03.o)
                              main.o (SCL_AllocColRam)
../sbl6/segalib/lib/sega_scl.a(scl_pr02.o)
                              main.o (SCL_SetColRam)
../sbl6/segalib/lib/sega_scl.a(scl_fu03.o)
                              main.o (SCL_InitConfigTb)
../sbl6/segalib/lib/sega_scl.a(scl_fu04.o)
                              main.o (SCL_SetCycleTable)
../sbl6/segalib/lib/sega_scl.a(scl_pr07.o)
                              main.o (SCL_SetPriority)
../sbl6/segalib/lib/sega_scl.a(scl_pr01.o)
                              main.o (SCL_SetSpriteMode)
../sbl6/segalib/lib/sega_scl.a(scl_pri.o)
                              ../sbl6/segalib/lib/sega_scl.a(scl_func.o) (SclRealOtherPri)
../sbl6/segalib/lib/sega_scl.a(scl_ro00.o)
                              ../sbl6/segalib/lib/sega_scl.a(scl_func.o) (SCL_Rotate)
../sbl6/segalib/lib/sega_scl.a(scl_pr06.o)
                              ../sbl6/segalib/lib/sega_scl.a(scl_pr03.o) (SCL_SetColRamOffset)
../sbl6/segalib/lib/sega_scl.a(scl_pr05.o)
                              ../sbl6/segalib/lib/sega_scl.a(scl_pr02.o) (SCL_GetColRamOffset)
../sbl6/segalib/lib/sega_mth.a(mth_fixd.o)
                              sprite.o (MTH_Mul)
../sbl6/segalib/lib/sega_mth.a(mth_tri.o)
                              sprite.o (MTH_Sin)
../sbl6/segalib/lib/sega_per.a(per_prt.o)
                              ../sbl6/segasmp/per/smpclib/per_x2.o (PER_LInit)
../sbl6/segalib/lib/sega_sat.a(DMA_SCU1.o)
                              ../sbl6/segalib/lib/sega_spr.a(spr_2c.o) (DMA_ScuMemCopy)
../sbl6/segalib/lib/sega_sat.a(DMA_SCU0.o)
                              ../sbl6/segalib/lib/sega_sat.a(DMA_SCU1.o) (DMA_ScuSetPrm)
../sbl6/segalib/lib/sega_sat.a(csh_main.o)
                              ../sbl6/segalib/lib/sega_sat.a(DMA_SCU1.o) (CSH_Purge)
c:/saturn/SH_COFF/sh-coff/bin/../lib/gcc/sh-coff/3.4-GNUSH_v0501\libgcc.a(__main.o)
                              main.o (__main)
c:/saturn/SH_COFF/sh-coff/bin/../lib/gcc/sh-coff/3.4-GNUSH_v0501\libgcc.a(_udivsi3.o)
                              ../sbl6/segalib/lib/sega_scl.a(scl_fu03.o) (__udivsi3)
c:/saturn/SH_COFF/sh-coff/bin/../lib/gcc/sh-coff/3.4-GNUSH_v0501\libgcc.a(_ashiftlt.o)
                              ../sbl6/segalib/lib/sega_scl.a(scl_fu03.o) (__ashlsi3)
c:/saturn/SH_COFF/sh-coff/bin/../lib/gcc/sh-coff/3.4-GNUSH_v0501\libgcc.a(_ashiftrt.o)
                              ../sbl6/segalib/lib/sega_scl.a(scl_ro00.o) (__ashiftrt_r4_6)
c:/saturn/SH_COFF/sh-coff/bin/../lib/gcc/sh-coff/3.4-GNUSH_v0501\libgcc.a(_si_to_df.o)
                              ../sbl6/segalib/lib/sega_scl.a(scl_ro00.o) (__floatsidf)
c:/saturn/SH_COFF/sh-coff/bin/../lib/gcc/sh-coff/3.4-GNUSH_v0501\libgcc.a(_mul_df.o)
                              ../sbl6/segalib/lib/sega_scl.a(scl_ro00.o) (__muldf3)
c:/saturn/SH_COFF/sh-coff/bin/../lib/gcc/sh-coff/3.4-GNUSH_v0501\libgcc.a(_df_to_si.o)
                              ../sbl6/segalib/lib/sega_scl.a(scl_ro00.o) (__fixdfsi)
c:/saturn/SH_COFF/sh-coff/bin/../lib/gcc/sh-coff/3.4-GNUSH_v0501\libgcc.a(_pack_df.o)
                              c:/saturn/SH_COFF/sh-coff/bin/../lib/gcc/sh-coff/3.4-GNUSH_v0501\libgcc.a(_si_to_df.o) (__pack_d)
c:/saturn/SH_COFF/sh-coff/bin/../lib/gcc/sh-coff/3.4-GNUSH_v0501\libgcc.a(_unpack_df.o)
                              c:/saturn/SH_COFF/sh-coff/bin/../lib/gcc/sh-coff/3.4-GNUSH_v0501\libgcc.a(_mul_df.o) (__unpack_d)
c:/saturn/SH_COFF/sh-coff/bin/../lib/gcc/sh-coff/3.4-GNUSH_v0501\libgcc.a(_thenan_df.o)
                              c:/saturn/SH_COFF/sh-coff/bin/../lib/gcc/sh-coff/3.4-GNUSH_v0501\libgcc.a(_mul_df.o) (__thenan_df)
c:/saturn/SH_COFF/sh-coff/bin/../lib/gcc/sh-coff/3.4-GNUSH_v0501\libgcc.a(_muldi3.o)
                              c:/saturn/SH_COFF/sh-coff/bin/../lib/gcc/sh-coff/3.4-GNUSH_v0501\libgcc.a(_mul_df.o) (__muldi3)
c:/saturn/SH_COFF/sh-coff/bin/../lib/gcc/sh-coff/3.4-GNUSH_v0501\libgcc.a(_lshrdi3.o)
                              c:/saturn/SH_COFF/sh-coff/bin/../lib/gcc/sh-coff/3.4-GNUSH_v0501\libgcc.a(_df_to_si.o) (__lshrdi3)
c:/saturn/SH_COFF/sh-coff/bin/../lib/gcc/sh-coff/3.4-GNUSH_v0501\libgcc.a(_ashldi3.o)
                              c:/saturn/SH_COFF/sh-coff/bin/../lib/gcc/sh-coff/3.4-GNUSH_v0501\libgcc.a(_pack_df.o) (__ashldi3)
c:/saturn/SH_COFF/sh-coff/bin/../lib/gcc/sh-coff/3.4-GNUSH_v0501\libgcc.a(_mulsi3.o)
                              c:/saturn/SH_COFF/sh-coff/bin/../lib/gcc/sh-coff/3.4-GNUSH_v0501\libgcc.a(_muldi3.o) (__mulsi3)
c:/saturn/SH_COFF/sh-coff/bin/../lib/gcc/sh-coff/3.4-GNUSH_v0501\libgcc.a(_lshiftrt.o)
                              c:/saturn/SH_COFF/sh-coff/bin/../lib/gcc/sh-coff/3.4-GNUSH_v0501\libgcc.a(_lshrdi3.o) (__lshrsi3)
c:/saturn/SH_COFF/sh-coff/bin/../lib/gcc/sh-coff/3.4-GNUSH_v0501/../../../../sh-coff/lib\libc.a(memcpy.o)
                              main.o (memcpy)
c:/saturn/SH_COFF/sh-coff/bin/../lib/gcc/sh-coff/3.4-GNUSH_v0501/../../../../sh-coff/lib\libc.a(memset.o)
                              ../sbl6/segalib/lib/sega_spr.a(spr_2c.o) (memset)
c:/saturn/SH_COFF/sh-coff/bin/../lib/gcc/sh-coff/3.4-GNUSH_v0501/../../../../sh-coff/lib\libc.a(atexit.o)
                              c:/saturn/SH_COFF/sh-coff/bin/../lib/gcc/sh-coff/3.4-GNUSH_v0501\libgcc.a(__main.o) (atexit)
c:/saturn/SH_COFF/sh-coff/bin/../lib/gcc/sh-coff/3.4-GNUSH_v0501/../../../../sh-coff/lib\libc.a(impure.o)
                              c:/saturn/SH_COFF/sh-coff/bin/../lib/gcc/sh-coff/3.4-GNUSH_v0501/../../../../sh-coff/lib\libc.a(atexit.o) (_impure_ptr)
c:/saturn/SH_COFF/sh-coff/bin/../lib/gcc/sh-coff/3.4-GNUSH_v0501/../../../../sh-coff/lib\libc.a(malloc.o)
                              c:/saturn/SH_COFF/sh-coff/bin/../lib/gcc/sh-coff/3.4-GNUSH_v0501/../../../../sh-coff/lib\libc.a(atexit.o) (malloc)
c:/saturn/SH_COFF/sh-coff/bin/../lib/gcc/sh-coff/3.4-GNUSH_v0501/../../../../sh-coff/lib\libc.a(mallocr.o)
                              c:/saturn/SH_COFF/sh-coff/bin/../lib/gcc/sh-coff/3.4-GNUSH_v0501/../../../../sh-coff/lib\libc.a(malloc.o) (_malloc_r)
c:/saturn/SH_COFF/sh-coff/bin/../lib/gcc/sh-coff/3.4-GNUSH_v0501/../../../../sh-coff/lib\libc.a(freer.o)
                              c:/saturn/SH_COFF/sh-coff/bin/../lib/gcc/sh-coff/3.4-GNUSH_v0501/../../../../sh-coff/lib\libc.a(malloc.o) (_free_r)
c:/saturn/SH_COFF/sh-coff/bin/../lib/gcc/sh-coff/3.4-GNUSH_v0501/../../../../sh-coff/lib\libc.a(mlock.o)
                              c:/saturn/SH_COFF/sh-coff/bin/../lib/gcc/sh-coff/3.4-GNUSH_v0501/../../../../sh-coff/lib\libc.a(mallocr.o) (__malloc_lock)
c:/saturn/SH_COFF/sh-coff/bin/../lib/gcc/sh-coff/3.4-GNUSH_v0501/../../../../sh-coff/lib\libc.a(sbrkr.o)
                              c:/saturn/SH_COFF/sh-coff/bin/../lib/gcc/sh-coff/3.4-GNUSH_v0501/../../../../sh-coff/lib\libc.a(mallocr.o) (_sbrk_r)
c:/saturn/SH_COFF/sh-coff/bin/../lib/gcc/sh-coff/3.4-GNUSH_v0501/../../../../sh-coff/lib\libc.a(syscalls.o)
                              c:/saturn/SH_COFF/sh-coff/bin/../lib/gcc/sh-coff/3.4-GNUSH_v0501/../../../../sh-coff/lib\libc.a(sbrkr.o) (_sbrk)
c:/saturn/SH_COFF/sh-coff/bin/../lib/gcc/sh-coff/3.4-GNUSH_v0501/../../../../sh-coff/lib\libc.a(trap.o)
                              c:/saturn/SH_COFF/sh-coff/bin/../lib/gcc/sh-coff/3.4-GNUSH_v0501/../../../../sh-coff/lib\libc.a(syscalls.o) (__trap34)
c:/saturn/SH_COFF/sh-coff/bin/../lib/gcc/sh-coff/3.4-GNUSH_v0501/../../../../sh-coff/lib\libc.a(abort.o)
                              c:/saturn/SH_COFF/sh-coff/bin/../lib/gcc/sh-coff/3.4-GNUSH_v0501/../../../../sh-coff/lib\libc.a(syscalls.o) (abort)
c:/saturn/SH_COFF/sh-coff/bin/../lib/gcc/sh-coff/3.4-GNUSH_v0501/../../../../sh-coff/lib\libc.a(signal.o)
                              c:/saturn/SH_COFF/sh-coff/bin/../lib/gcc/sh-coff/3.4-GNUSH_v0501/../../../../sh-coff/lib\libc.a(abort.o) (raise)
c:/saturn/SH_COFF/sh-coff/bin/../lib/gcc/sh-coff/3.4-GNUSH_v0501/../../../../sh-coff/lib\libc.a(signalr.o)
                              c:/saturn/SH_COFF/sh-coff/bin/../lib/gcc/sh-coff/3.4-GNUSH_v0501/../../../../sh-coff/lib\libc.a(signal.o) (_kill_r)

Allocating common symbols
Common symbol       size              file

SclRbgKtbAddr       0x8               ../sbl6/segalib/lib/sega_scl.a(scl_func.o)
SpMstCmd            0x4               ../sbl6/segalib/lib/sega_spr.a(spr_2c.o)
SclRb               0x1               ../sbl6/segalib/lib/sega_scl.a(scl_func.o)
Scl_flag            0x2               ../sbl6/segalib/lib/sega_scl.a(scl_func.o)
per_get_time_flg    0x1               ../sbl6/segalib/lib/sega_per.a(per_prt.o)
SpScreenY           0x4               ../sbl6/segalib/lib/sega_spr.a(spr_1c.o)
SclK_TableBuff      0xcd0             ../sbl6/segalib/lib/sega_scl.a(scl_func.o)
SclAutoEndBlue2     0x2               ../sbl6/segalib/lib/sega_scl.a(scl_pri.o)
SpFbcrMode          0x2               ../sbl6/segalib/lib/sega_spr.a(spr_1c.o)
Sp2OpenFlag         0x4               ../sbl6/segalib/lib/sega_spr.a(spr_2c.o)
SclColOffset        0x10              ../sbl6/segalib/lib/sega_scl.a(scl_pri.o)
SclAddrCsTbl        0x8               ../sbl6/segalib/lib/sega_scl.a(scl_func.o)
SclPriBuffDirty     0x1               ../sbl6/segalib/lib/sega_scl.a(scl_pri.o)
SclAutoEndRed       0x2               ../sbl6/segalib/lib/sega_scl.a(scl_pri.o)
SclAutoSurface      0x4               ../sbl6/segalib/lib/sega_scl.a(scl_pri.o)
__interrupt_vector  0x400             ../sbl6/segalib/lib/sega_int.a(int.o)
per_hot_res         0x1               ../sbl6/segalib/lib/sega_per.a(per_prt.o)
SclCsx              0x8               ../sbl6/segalib/lib/sega_scl.a(scl_ro00.o)
Scl_s_reg           0x28              ../sbl6/segalib/lib/sega_scl.a(scl_func.o)
SclAutoGreen        0x2               ../sbl6/segalib/lib/sega_scl.a(scl_pri.o)
SclAutoEndGreen     0x2               ../sbl6/segalib/lib/sega_scl.a(scl_pri.o)
SclAutoCount        0x4               ../sbl6/segalib/lib/sega_scl.a(scl_pri.o)
SpGourTblMax        0x4               ../sbl6/segalib/lib/sega_spr.a(spr_2c.o)
SclColRamAlloc256   0x20              ../sbl6/segalib/lib/sega_scl.a(scl_pri.o)
SclRotateXy         0x8               ../sbl6/segalib/lib/sega_scl.a(scl_func.o)
SpDrawPrtyBlk       0x4               ../sbl6/segalib/lib/sega_spr.a(spr_2c.o)
SclAutoCurRate      0x1               ../sbl6/segalib/lib/sega_scl.a(scl_pri.o)
SpLCoordX           0x4               ../sbl6/segalib/lib/sega_spr.a(spr_2c.o)
SpMstDrawPrtyBlk    0x4               ../sbl6/segalib/lib/sega_spr.a(spr_2c.o)
SclAutoPlusFlag     0x1               ../sbl6/segalib/lib/sega_scl.a(scl_pri.o)
per_set_sys_flg     0x1               ../sbl6/segalib/lib/sega_per.a(per_prt.o)
Scl_d_reg           0x48              ../sbl6/segalib/lib/sega_scl.a(scl_func.o)
SclRotateDisp       0x8               ../sbl6/segalib/lib/sega_scl.a(scl_func.o)
SpGourTbl           0x4               ../sbl6/segalib/lib/sega_spr.a(spr_2c.o)
SclSpColMix         0x8               ../sbl6/segalib/lib/sega_scl.a(scl_pri.o)
SpDil               0x2               ../sbl6/segalib/lib/sega_spr.a(spr_1c.o)
SpLookupTblR        0x2               ../sbl6/segalib/lib/sega_spr.a(spr_2c.o)
SclAutoMax          0x4               ../sbl6/segalib/lib/sega_scl.a(scl_pri.o)
SpCmdTbl            0x4               ../sbl6/segalib/lib/sega_spr.a(spr_2c.o)
SclRotateMoveZ      0x8               ../sbl6/segalib/lib/sega_scl.a(scl_func.o)
SclLineColRamOffset
                    0x4               ../sbl6/segalib/lib/sega_scl.a(scl_pri.o)
SclRotXySw          0x4               ../sbl6/segalib/lib/sega_scl.a(scl_func.o)
per_get_time_adr    0x4               ../sbl6/segalib/lib/sega_per.a(per_prt.o)
SclColRamAlloc2048  0x4               ../sbl6/segalib/lib/sega_scl.a(scl_pri.o)
SclBgPriNum         0x6               ../sbl6/segalib/lib/sega_scl.a(scl_pri.o)
SpCharMax           0x4               ../sbl6/segalib/lib/sega_spr.a(spr_2c.o)
SpDrawPrtyProcFlag  0x4               ../sbl6/segalib/lib/sega_spr.a(spr_2c.o)
SclAutoEndBlue      0x2               ../sbl6/segalib/lib/sega_scl.a(scl_pri.o)
SpCmdNo             0x4               ../sbl6/segalib/lib/sega_spr.a(spr_2c.o)
SclAutoEndGreen2    0x2               ../sbl6/segalib/lib/sega_scl.a(scl_pri.o)
Scl_r_reg           0x10              ../sbl6/segalib/lib/sega_scl.a(scl_func.o)
SclRPMD             0x2               ../sbl6/segalib/lib/sega_scl.a(scl_func.o)
SpDrawPrtyBlkMax    0x4               ../sbl6/segalib/lib/sega_spr.a(spr_2c.o)
SpDie               0x2               ../sbl6/segalib/lib/sega_spr.a(spr_1c.o)
SclAutoVeFlag       0x1               ../sbl6/segalib/lib/sega_scl.a(scl_pri.o)
SclBgColMix         0x8               ../sbl6/segalib/lib/sega_scl.a(scl_pri.o)
SpSlvCmdPos         0x4               ../sbl6/segalib/lib/sega_spr.a(spr_2c.o)
per_get_sys_data    0xc               ../sbl6/segalib/lib/sega_per.a(per_prt.o)
SclRbgKtbOffset     0x8               ../sbl6/segalib/lib/sega_scl.a(scl_func.o)
SclAutoIndex        0x4               ../sbl6/segalib/lib/sega_scl.a(scl_pri.o)
SclAutoEndRate      0x1               ../sbl6/segalib/lib/sega_scl.a(scl_pri.o)
SpSlvDrawPrtyBlk    0x4               ../sbl6/segalib/lib/sega_spr.a(spr_2c.o)
_SclRotregBuff      0xd0              ../sbl6/segalib/lib/sega_scl.a(scl_func.o)
SclAutoBlue         0x2               ../sbl6/segalib/lib/sega_scl.a(scl_pri.o)
SpTvMode            0x2               ../sbl6/segalib/lib/sega_spr.a(spr_1c.o)
SpScreenX           0x4               ../sbl6/segalib/lib/sega_spr.a(spr_1c.o)
SclRa               0x1               ../sbl6/segalib/lib/sega_scl.a(scl_func.o)
SclRotateZ          0x8               ../sbl6/segalib/lib/sega_scl.a(scl_func.o)
SpCharTbl           0x4               ../sbl6/segalib/lib/sega_spr.a(spr_2c.o)
SclAddrLsTbl        0x8               ../sbl6/segalib/lib/sega_scl.a(scl_func.o)
SclK_TableNum       0x8               ../sbl6/segalib/lib/sega_scl.a(scl_func.o)
SclAutoRed          0x2               ../sbl6/segalib/lib/sega_scl.a(scl_pri.o)
SpCmdTblR           0x2               ../sbl6/segalib/lib/sega_spr.a(spr_2c.o)
SclAutoInterval     0x4               ../sbl6/segalib/lib/sega_scl.a(scl_pri.o)
SclOtherPri         0x10              ../sbl6/segalib/lib/sega_scl.a(scl_pri.o)
per_time_out_flg    0x1               ../sbl6/segalib/lib/sega_per.a(per_prt.o)
SclRotateTableAddress
                    0x4               ../sbl6/segalib/lib/sega_scl.a(scl_func.o)
SpMstCmdPos         0x4               ../sbl6/segalib/lib/sega_spr.a(spr_2c.o)
SpSlvCmd            0x4               ../sbl6/segalib/lib/sega_spr.a(spr_2c.o)
SclAutoRGB          0x600             ../sbl6/segalib/lib/sega_scl.a(scl_pri.o)
errno               0x4               c:/saturn/SH_COFF/sh-coff/bin/../lib/gcc/sh-coff/3.4-GNUSH_v0501/../../../../sh-coff/lib\libc.a(syscalls.o)
SclK_TableFlag      0x4               ../sbl6/segalib/lib/sega_scl.a(scl_func.o)
SclAutoEndRed2      0x2               ../sbl6/segalib/lib/sega_scl.a(scl_pri.o)
SclCsy              0x8               ../sbl6/segalib/lib/sega_scl.a(scl_ro00.o)
SclSpPriNum         0x8               ../sbl6/segalib/lib/sega_scl.a(scl_pri.o)
Scl_w_reg           0x20              ../sbl6/segalib/lib/sega_scl.a(scl_func.o)
SpLCoordY           0x4               ../sbl6/segalib/lib/sega_spr.a(spr_2c.o)
Scl_n_reg           0x40              ../sbl6/segalib/lib/sega_scl.a(scl_func.o)

Memory Configuration

Name             Origin             Length             Attributes
*default*        0x00000000         0xffffffff

Linker script and memory map

LOAD ../sbl6/segasmp/lib/strt1_g.o
LOAD ../sbl6/segasmp/lib/strt2_g.o
LOAD ../sbl6/segasmp/v_blank/set_vb.o
LOAD ../sbl6/segasmp/v_blank/v_blank.o
LOAD ../sbl6/segasmp/per/smpclib/per_x1.o
LOAD ../sbl6/segasmp/per/smpclib/per_x2.o
LOAD ../sbl6/segasmp/per/smpclib/per_x3.o
LOAD sprite.o
LOAD main.o
LOAD ../sbl6/segalib/lib/sega_int.a
LOAD ../sbl6/segalib/lib/sega_spr.a
LOAD ../sbl6/segalib/lib/sega_scl.a
LOAD ../sbl6/segalib/lib/sega_mth.a
LOAD ../sbl6/segalib/lib/sega_cdc.a
LOAD ../sbl6/segalib/lib/sega_adp.a
LOAD ../sbl6/segalib/lib/sega_per.a
LOAD ../sbl6/segalib/lib/sega_sat.a
LOAD c:/saturn/SH_COFF/sh-coff/bin/../lib/gcc/sh-coff/3.4-GNUSH_v0501\libgcc.a
LOAD c:/saturn/SH_COFF/sh-coff/bin/../lib/gcc/sh-coff/3.4-GNUSH_v0501/../../../../sh-coff/lib\libc.a
LOAD c:/saturn/SH_COFF/sh-coff/bin/../lib/gcc/sh-coff/3.4-GNUSH_v0501\libgcc.a

.text           0x06010000    0x1ef90
 *(.text)
 .text          0x06010000       0x30 ../sbl6/segasmp/lib/strt1_g.o
                0x06010024                _D_END
                0x06010020                _D_BGN
                0x0601002c                _B_END
                0x06010028                _B_BGN
                0x06010000                START
 .text          0x06010030       0x60 ../sbl6/segasmp/lib/strt2_g.o
                0x06010050                _INITSCT
                0x06010030                _INIT
 .text          0x06010090       0x70 ../sbl6/segasmp/v_blank/set_vb.o
                0x06010090                SetVblank
 .text          0x06010100      0x140 ../sbl6/segasmp/v_blank/v_blank.o
                0x0601011c                UsrVblankOut
                0x06010100                UsrVblankIn
 .text          0x06010240      0x430 ../sbl6/segasmp/per/smpclib/per_x1.o
                0x060105d4                PER_GetAnalogXYZ
                0x06010264                PER_GetTriggerHandler
                0x060104fe                PER_GetEdge
                0x0601047c                PER_GetTrigger
                0x06010528                PER_GetPressEdge
                0x0601057c                PER_GetReleaseEdge
                0x06010240                PER_SetTriggerHandler
 .text          0x06010670      0x200 ../sbl6/segasmp/per/smpclib/per_x2.o
                0x06010774                PER_GetDeviceA
                0x06010670                PER_OpenPort
                0x060106a8                PER_GetPort
                0x060107ee                PER_GetDeviceR
 .text          0x06010870       0x20 ../sbl6/segasmp/per/smpclib/per_x3.o
                0x06010870                PER_DisguiseTrigger
 .text          0x06010890      0x320 sprite.o
                0x06010890                drawSprite
 .text          0x06010bb0    0x145a0 main.o
                0x06022370                cosmo2u_col
                0x06024960                face
                0x06022720                cosmo2u_map
                0x06022fe0                bunny
                0x06010bb0                cosmo2u_char
                0x06024b60                main
 .text          0x06025150       0x40 ../sbl6/segalib/lib/sega_int.a(int.o)
                0x0602517c                INT_GetScuFunc
                0x06025150                INT_SetScuFunc
 .text          0x06025190      0x624 ../sbl6/segalib/lib/sega_int.a(int_trmp.o)
                0x060252f8                __interrupt_handler60
                0x060254a8                __interrupt_handler132
                0x0602565e                __interrupt_handler205
                0x060254c6                __interrupt_handler137
                0x060253f4                __interrupt_handler102
                0x06025232                __interrupt_handler27
                0x06025634                __interrupt_handler198
                0x06025526                __interrupt_handler153
                0x0602520e                __interrupt_handler21
                0x0602531c                __interrupt_handler66
                0x0602540c                __interrupt_handler106
                0x06025556                __interrupt_handler161
                0x060253a0                __interrupt_handler88
                0x0602556e                __interrupt_handler165
                0x0602547e                __interrupt_handler125
                0x060251b4                __interrupt_handler6
                0x06025250                __interrupt_handler32
                0x0602560a                __interrupt_handler191
                0x06025724                __interrupt_handler238
                0x0602573c                __interrupt_handler242
                0x06025544                __interrupt_handler158
                0x060253ac                __interrupt_handler90
                0x06025568                __interrupt_handler164
                0x0602528c                __interrupt_handler42
                0x060255ce                __interrupt_handler181
                0x060256d6                __interrupt_handler225
                0x0602577e                __interrupt_handler253
                0x06025592                __interrupt_handler171
                0x0602534c                __interrupt_handler74
                0x060251a2                __interrupt_handler3
                0x060252e6                __interrupt_handler57
                0x060251e4                __interrupt_handler14
                0x0602567c                __interrupt_handler210
                0x060256ac                __interrupt_handler218
                0x06025670                __interrupt_handler208
                0x06025274                __interrupt_handler38
                0x06025190                __interrupt_handler0
                0x06025400                __interrupt_handler104
                0x0602553e                __interrupt_handler157
                0x0602568e                __interrupt_handler213
                0x06025580                __interrupt_handler168
                0x0602538e                __interrupt_handler85
                0x0602542a                __interrupt_handler111
                0x0602543c                __interrupt_handler114
                0x060252aa                __interrupt_handler47
                0x06025700                __interrupt_handler232
                0x060256ca                __interrupt_handler223
                0x0602571e                __interrupt_handler237
                0x0602530a                __interrupt_handler63
                0x06025298                __interrupt_handler44
                0x060255aa                __interrupt_handler175
                0x060255d4                __interrupt_handler182
                0x060255ec                __interrupt_handler186
                0x060254ea                __interrupt_handler143
                0x06025412                __interrupt_handler107
                0x06025478                __interrupt_handler124
                0x06025598                __interrupt_handler172
                0x0602574e                __interrupt_handler245
                0x060253ca                __interrupt_handler95
                0x060254a2                __interrupt_handler131
                0x060254b4                __interrupt_handler134
                0x060254d2                __interrupt_handler139
                0x06025340                __interrupt_handler72
                0x060256fa                __interrupt_handler231
                0x06025550                __interrupt_handler160
                0x06025496                __interrupt_handler129
                0x06025208                __interrupt_handler20
                0x06025316                __interrupt_handler65
                0x060252e0                __interrupt_handler56
                0x060251de                __interrupt_handler13
                0x06025676                __interrupt_handler209
                0x06025430                __interrupt_handler112
                0x06025202                __interrupt_handler19
                0x060253be                __interrupt_handler93
                0x06025628                __interrupt_handler196
                0x0602551a                __interrupt_handler151
                0x0602557a                __interrupt_handler167
                0x06025790                __trampoline
                0x060251f6                __interrupt_handler17
                0x060256e8                __interrupt_handler228
                0x0602578a                __interrupt_handler255
                0x06025748                __interrupt_handler244
                0x060253e2                __interrupt_handler99
                0x060255da                __interrupt_handler183
                0x060254d8                __interrupt_handler140
                0x060255fe                __interrupt_handler189
                0x060254fc                __interrupt_handler146
                0x060256c4                __interrupt_handler222
                0x06025538                __interrupt_handler156
                0x0602546c                __interrupt_handler122
                0x06025760                __interrupt_handler248
                0x060252b0                __interrupt_handler48
                0x0602532e                __interrupt_handler69
                0x06025220                __interrupt_handler24
                0x060253a6                __interrupt_handler89
                0x0602569a                __interrupt_handler215
                0x06025784                __interrupt_handler254
                0x0602539a                __interrupt_handler87
                0x060252fe                __interrupt_handler61
                0x06025622                __interrupt_handler195
                0x06025514                __interrupt_handler150
                0x06025286                __interrupt_handler41
                0x06025424                __interrupt_handler110
                0x0602548a                __interrupt_handler127
                0x06025418                __interrupt_handler108
                0x06025436                __interrupt_handler113
                0x06025448                __interrupt_handler116
                0x06025466                __interrupt_handler121
                0x0602535e                __interrupt_handler77
                0x0602527a                __interrupt_handler39
                0x06025292                __interrupt_handler43
                0x06025766                __interrupt_handler249
                0x060255a4                __interrupt_handler174
                0x060254c0                __interrupt_handler136
                0x060255f8                __interrupt_handler188
                0x060254f6                __interrupt_handler145
                0x060251c6                __interrupt_handler9
                0x0602536a                __interrupt_handler79
                0x060256e2                __interrupt_handler227
                0x0602525c                __interrupt_handler34
                0x0602549c                __interrupt_handler130
                0x0602575a                __interrupt_handler247
                0x06025352                __interrupt_handler75
                0x0602559e                __interrupt_handler173
                0x060252ce                __interrupt_handler53
                0x0602550e                __interrupt_handler149
                0x06025772                __interrupt_handler251
                0x06025706                __interrupt_handler233
                0x060251cc                __interrupt_handler10
                0x06025658                __interrupt_handler204
                0x0602537c                __interrupt_handler82
                0x06025382                __interrupt_handler83
                0x06025226                __interrupt_handler25
                0x06025742                __interrupt_handler243
                0x0602555c                __interrupt_handler162
                0x060252a4                __interrupt_handler46
                0x060255bc                __interrupt_handler178
                0x06025370                __interrupt_handler80
                0x06025304                __interrupt_handler62
                0x0602519c                __interrupt_handler2
                0x0602523e                __interrupt_handler29
                0x06025334                __interrupt_handler70
                0x0602541e                __interrupt_handler109
                0x06025508                __interrupt_handler148
                0x060253c4                __interrupt_handler94
                0x060256d0                __interrupt_handler224
                0x060253fa                __interrupt_handler103
                0x06025268                __interrupt_handler36
                0x06025484                __interrupt_handler126
                0x06025754                __interrupt_handler246
                0x060252da                __interrupt_handler55
                0x060251d8                __interrupt_handler12
                0x060252c8                __interrupt_handler52
                0x060255f2                __interrupt_handler187
                0x060254f0                __interrupt_handler144
                0x0602544e                __interrupt_handler117
                0x060251fc                __interrupt_handler18
                0x0602562e                __interrupt_handler197
                0x06025520                __interrupt_handler152
                0x06025454                __interrupt_handler118
                0x0602558c                __interrupt_handler170
                0x06025646                __interrupt_handler201
                0x060253d6                __interrupt_handler97
                0x06025562                __interrupt_handler163
                0x060255c8                __interrupt_handler180
                0x06025610                __interrupt_handler192
                0x06025730                __interrupt_handler240
                0x06025472                __interrupt_handler123
                0x06025694                __interrupt_handler214
                0x0602524a                __interrupt_handler31
                0x06025238                __interrupt_handler28
                0x06025322                __interrupt_handler67
                0x06025328                __interrupt_handler68
                0x06025214                __interrupt_handler22
                0x0602521a                __interrupt_handler23
                0x060255b0                __interrupt_handler176
                0x060251ba                __interrupt_handler7
                0x060256be                __interrupt_handler221
                0x060256a6                __interrupt_handler217
                0x060256ee                __interrupt_handler229
                0x060252b6                __interrupt_handler49
                0x060251a8                __interrupt_handler4
                0x06025280                __interrupt_handler40
                0x06025442                __interrupt_handler115
                0x06025712                __interrupt_handler235
                0x060253b2                __interrupt_handler91
                0x06025664                __interrupt_handler206
                0x060255b6                __interrupt_handler177
                0x06025502                __interrupt_handler147
                0x0602526e                __interrupt_handler37
                0x0602576c                __interrupt_handler250
                0x06025196                __interrupt_handler1
                0x060256b2                __interrupt_handler219
                0x06025358                __interrupt_handler76
                0x060253e8                __interrupt_handler100
                0x060252ec                __interrupt_handler58
                0x060251ea                __interrupt_handler15
                0x06025688                __interrupt_handler212
                0x06025736                __interrupt_handler241
                0x0602564c                __interrupt_handler202
                0x06025616                __interrupt_handler193
                0x06025364                __interrupt_handler78
                0x060252bc                __interrupt_handler50
                0x06025256                __interrupt_handler33
                0x06025574                __interrupt_handler166
                0x060254cc                __interrupt_handler138
                0x060254ba                __interrupt_handler135
                0x06025244                __interrupt_handler30
                0x060255e0                __interrupt_handler184
                0x060254de                __interrupt_handler141
                0x060256f4                __interrupt_handler230
                0x06025718                __interrupt_handler236
                0x0602545a                __interrupt_handler119
                0x06025394                __interrupt_handler86
                0x06025406                __interrupt_handler105
                0x06025376                __interrupt_handler81
                0x06025460                __interrupt_handler120
                0x06025490                __interrupt_handler128
                0x060252d4                __interrupt_handler54
                0x060251d2                __interrupt_handler11
                0x0602563a                __interrupt_handler199
                0x0602552c                __interrupt_handler154
                0x0602529e                __interrupt_handler45
                0x060256a0                __interrupt_handler216
                0x06025652                __interrupt_handler203
                0x060253ee                __interrupt_handler101
                0x06025388                __interrupt_handler84
                0x060255e6                __interrupt_handler185
                0x060254e4                __interrupt_handler142
                0x0602522c                __interrupt_handler26
                0x06025310                __interrupt_handler64
                0x06025640                __interrupt_handler200
                0x0602566a                __interrupt_handler207
                0x0602561c                __interrupt_handler194
                0x060253b8                __interrupt_handler92
                0x06025532                __interrupt_handler155
                0x06025682                __interrupt_handler211
                0x060254ae                __interrupt_handler133
                0x060251ae                __interrupt_handler5
                0x06025346                __interrupt_handler73
                0x060251f0                __interrupt_handler16
                0x0602572a                __interrupt_handler239
                0x0602570c                __interrupt_handler234
                0x06025262                __interrupt_handler35
                0x060252f2                __interrupt_handler59
                0x06025586                __interrupt_handler169
                0x060253dc                __interrupt_handler98
                0x0602533a                __interrupt_handler71
                0x060252c2                __interrupt_handler51
                0x0602554a                __interrupt_handler159
                0x060256dc                __interrupt_handler226
                0x060253d0                __interrupt_handler96
                0x06025604                __interrupt_handler190
                0x060256b8                __interrupt_handler220
                0x060251c0                __interrupt_handler8
                0x060255c2                __interrupt_handler179
                0x06025778                __interrupt_handler252
 *fill*         0x060257b4        0xc 00
 .text          0x060257c0     0x12a0 ../sbl6/segalib/lib/sega_spr.a(spr_2c.o)
                0x06026a20                SlaveFlushDrawPrtyBlock
                0x060257c0                SPR_2Initial
                0x06026004                SPR_2SysClip
                0x06025fa4                SPR_2LocalCoord
                0x0602689c                SPR_2FlushDrawPrtyBlock
                0x06026588                SPR_2DistSpr
                0x06025f8c                SPR_2FlushDrawPrty
                0x060266ac                SPR_2Cmd
                0x06025c88                SPR_2GourTblNoToVram
                0x06025ce8                SPR_2GetAreaSizeInfo
                0x06025a50                SPR_2SetGourTbl
                0x0602623c                SPR_2Polygon
                0x06025cc4                SPR_2CharNoToVram
                0x060259d0                SPR_2SetTvMode
                0x06025e2c                SPR_2CloseCommand
                0x06025a0c                SPR_2FrameEraseData
                0x060257e8                SPR_2Initial2
                0x0602641c                SPR_2ScaleSpr
                0x060260ac                SPR_2Line
                0x06025d78                SPR_2OpenCommand
                0x060259ec                SPR_2FrameChgIntr
                0x060262f8                SPR_2NormSpr
                0x06025a80                SPR_2SetLookupTbl
                0x06025ab4                SPR_2SetChar
                0x06025cac                SPR_2LookupTblNoToVram
                0x06026180                SPR_2PolyLine
                0x06025c20                SPR_2ClrAllChar
                0x06025bd4                SPR_2ClrChar
                0x06026050                SPR_2UserClip
 .text          0x06026a60      0x1e6 ../sbl6/segalib/lib/sega_spr.a(spr_slv.o)
                0x06026bc4                SPR_WaitEndSlaveSH
                0x06026a60                SPR_SMPC_SSHON
                0x06026ba0                SPR_RunSlaveSH
                0x06026a64                SPR_InitSlaveSH
                0x06026b2c                SPR_SlaveSHmain
                0x06026a61                SPR_SMPC_SSHOFF
 *fill*         0x06026c46        0xa 00
 .text          0x06026c50      0x36a ../sbl6/segalib/lib/sega_spr.a(spr_1c.o)
                0x06026f04                SPR_WaitDrawEnd
                0x06026f1c                SPR_SetEosMode
                0x06026e34                SPR_SetEraseData
                0x06026c50                SPR_Initial
                0x06026d28                SPR_SetTvMode
                0x06026dc0                SPR_GetStatus
 *fill*         0x06026fba        0x6 00
 .text          0x06026fc0      0x244 ../sbl6/segalib/lib/sega_spr.a(spr_2a.o)
                0x06026fd2                sprMemCpyW
                0x06027030                flushDrawPrtyBlock
                0x06026fc0                sprMemCpyL
                0x06026fe4                SPR_2SetDrawPrty
 *fill*         0x06027204        0xc 00
 .text          0x06027210      0x2fc ../sbl6/segalib/lib/sega_scl.a(scl_vblv.o)
                0x060272cc                SCL_DisplayFrame
                0x06027210                SCL_SetFrameInterval
                0x06027300                SCL_VblInit
                0x06027350                SCL_VblankStart
                0x06027394                SCL_VblankEnd
 *fill*         0x0602750c        0x4 00
 .text          0x06027510      0xb9c ../sbl6/segalib/lib/sega_scl.a(scl_func.o)
                0x06027eec                SCL_Vdp2_SGLInit
                0x06027dfc                SCL_PriIntProc
                0x06027d74                SCL_Memcpyw
                0x0602808c                SCL_SglOff
                0x0602806c                SCL_SglOn
                0x06027ce0                SCL_ScrollShow
                0x06027788                SCL_Close
                0x06027a80                SCL_Scale
                0x06027510                SCL_Vdp2Init
                0x060278f4                SCL_Move
                0x06027bbc                SCL_CopyReg
                0x06027764                SCL_Open
                0x06027594                SCL_ParametersInit
                0x060277a4                SCL_MoveTo
                0x06027d9c                SCL_SetColRamMode
 *fill*         0x060280ac        0x4 00
 .text          0x060280b0       0x84 ../sbl6/segalib/lib/sega_scl.a(scl_back.o)
                0x060280b0                SCL_SetBack
 *fill*         0x06028134        0xc 00
 .text          0x06028140      0x138 ../sbl6/segalib/lib/sega_scl.a(scl_pr03.o)
                0x06028140                SCL_FreeColRam
                0x06028178                SCL_AllocColRam
 *fill*         0x06028278        0x8 00
 .text          0x06028280       0x9c ../sbl6/segalib/lib/sega_scl.a(scl_pr02.o)
                0x06028280                SCL_SetColRam
 *fill*         0x0602831c        0x4 00
 .text          0x06028320      0x94c ../sbl6/segalib/lib/sega_scl.a(scl_fu03.o)
                0x0602837c                SCL_SetConfig
                0x06028320                SCL_InitConfigTb
 *fill*         0x06028c6c        0x4 00
 .text          0x06028c70       0x28 ../sbl6/segalib/lib/sega_scl.a(scl_fu04.o)
                0x06028c70                SCL_SetCycleTable
 *fill*         0x06028c98        0x8 00
 .text          0x06028ca0      0x214 ../sbl6/segalib/lib/sega_scl.a(scl_pr07.o)
                0x06028ca0                SCL_SetPriority
 *fill*         0x06028eb4        0xc 00
 .text          0x06028ec0       0x58 ../sbl6/segalib/lib/sega_scl.a(scl_pr01.o)
                0x06028ec0                SCL_SetSpriteMode
 *fill*         0x06028f18        0x8 00
 .text          0x06028f20     0x10a4 ../sbl6/segalib/lib/sega_scl.a(scl_pri.o)
                0x06028fb4                SCL_AbortAutoVe
                0x06029e64                SCL_SetShadowBit
                0x0602942c                SCL_AutoExec
                0x06028f20                SCL_PriorityInit
                0x06029940                SCL_IncColOffset
                0x06028fc8                SCL_SetColMixRate
                0x06028f98                SCL_GetColRamMode
 *fill*         0x06029fc4        0xc 00
 .text          0x06029fd0     0x1394 ../sbl6/segalib/lib/sega_scl.a(scl_ro00.o)
                0x0602b1bc                SCL_RotateZD
                0x0602a484                SCL_Rotate
                0x0602a158                SCL_InitRotateTable
 *fill*         0x0602b364        0xc 00
 .text          0x0602b370      0x1b4 ../sbl6/segalib/lib/sega_scl.a(scl_pr06.o)
                0x0602b370                SCL_SetColRamOffset
 *fill*         0x0602b524        0xc 00
 .text          0x0602b530       0xac ../sbl6/segalib/lib/sega_scl.a(scl_pr05.o)
                0x0602b530                SCL_GetColRamOffset
 *fill*         0x0602b5dc        0x4 00
 .text          0x0602b5e0       0xa4 ../sbl6/segalib/lib/sega_mth.a(mth_fixd.o)
                0x0602b630                MTH_FixedToInt
                0x0602b620                MTH_IntToFixed
                0x0602b5e0                MTH_Mul
                0x0602b640                MTH_Product
                0x0602b600                MTH_Div
 *fill*         0x0602b684        0xc 00
 .text          0x0602b690      0x600 ../sbl6/segalib/lib/sega_mth.a(mth_tri.o)
                0x0602b72c                fcos
                0x0602b732                fsin
                0x0602b6dc                MTH_Cos
                0x0602b690                MTH_Sin
                0x0602b8d0                MTH_Atan
 .text          0x0602bc90      0xf50 ../sbl6/segalib/lib/sega_per.a(per_prt.o)
                0x0602c0b0                PER_IntFunc
                0x0602bea8                PER_LGetPer
                0x0602bc90                PER_LInit
 .text          0x0602cbe0      0x1f4 ../sbl6/segalib/lib/sega_sat.a(DMA_SCU1.o)
                0x0602cd3c                DMA_ScuResult
                0x0602cbe0                DMA_ScuInit
                0x0602cc30                DMA_ScuMemCopy
 *fill*         0x0602cdd4        0xc 00
 .text          0x0602cde0      0x308 ../sbl6/segalib/lib/sega_sat.a(DMA_SCU0.o)
                0x0602ce64                DMA_ScuStart
                0x0602cf98                DMA_ScuIntFunc0
                0x0602d008                DMA_ScuIntFunc1
                0x0602d078                DMA_ScuIntFunc2
                0x0602cf58                DMA_ScuGetStatus
                0x0602cde0                DMA_ScuSetPrm
 *fill*         0x0602d0e8        0x8 00
 .text          0x0602d0f0       0xe8 ../sbl6/segalib/lib/sega_sat.a(csh_main.o)
                0x0602d0f0                CSH_Init
                0x0602d158                CSH_AllClr
                0x0602d1a4                CSH_Purge
 *fill*         0x0602d1d8        0x8 00
 .text          0x0602d1e0       0xa0 c:/saturn/SH_COFF/sh-coff/bin/../lib/gcc/sh-coff/3.4-GNUSH_v0501\libgcc.a(__main.o)
                0x0602d254                __main
                0x0602d1e0                __do_global_dtors
                0x0602d214                __do_global_ctors
 .text          0x0602d280       0x70 c:/saturn/SH_COFF/sh-coff/bin/../lib/gcc/sh-coff/3.4-GNUSH_v0501\libgcc.a(_udivsi3.o)
                0x0602d2a2                __udivsi3
 .text          0x0602d2f0       0x90 c:/saturn/SH_COFF/sh-coff/bin/../lib/gcc/sh-coff/3.4-GNUSH_v0501\libgcc.a(_ashiftlt.o)
                0x0602d2f0                __ashlsi3
 .text          0x0602d380       0x60 c:/saturn/SH_COFF/sh-coff/bin/../lib/gcc/sh-coff/3.4-GNUSH_v0501\libgcc.a(_ashiftrt.o)
                0x0602d38c                __ashiftrt_r4_27
                0x0602d3c0                __ashiftrt_r4_6
                0x0602d3b0                __ashiftrt_r4_14
                0x0602d3a2                __ashiftrt_r4_19
                0x0602d3ba                __ashiftrt_r4_9
                0x0602d3ce                __ashiftrt_r4_0
                0x0602d380                __ashiftrt_r4_31
                0x0602d38e                __ashiftrt_r4_26
                0x0602d39c                __ashiftrt_r4_22
                0x0602d3a8                __ashiftrt_r4_16
                0x0602d3b4                __ashiftrt_r4_12
                0x0602d388                __ashiftrt_r4_29
                0x0602d3a6                __ashiftrt_r4_17
                0x0602d386                __ashiftrt_r4_30
                0x0602d3c2                __ashiftrt_r4_5
                0x0602d3bc                __ashiftrt_r4_8
                0x0602d380                __ashiftrt_r4_32
                0x0602d390                __ashiftrt_r4_25
                0x0602d3c8                __ashiftrt_r4_2
                0x0602d392                __ashiftrt_r4_24
                0x0602d3ae                __ashiftrt_r4_15
                0x0602d3b8                __ashiftrt_r4_10
                0x0602d3ca                __ashiftrt_r4_1
                0x0602d38a                __ashiftrt_r4_28
                0x0602d3a0                __ashiftrt_r4_20
                0x0602d3be                __ashiftrt_r4_7
                0x0602d3b2                __ashiftrt_r4_13
                0x0602d3b6                __ashiftrt_r4_11
                0x0602d3c4                __ashiftrt_r4_4
                0x0602d39a                __ashiftrt_r4_23
                0x0602d3a4                __ashiftrt_r4_18
                0x0602d39e                __ashiftrt_r4_21
                0x0602d3c6                __ashiftrt_r4_3
 .text          0x0602d3e0       0xb0 c:/saturn/SH_COFF/sh-coff/bin/../lib/gcc/sh-coff/3.4-GNUSH_v0501\libgcc.a(_si_to_df.o)
                0x0602d3e0                __floatsidf
 .text          0x0602d490      0x2e0 c:/saturn/SH_COFF/sh-coff/bin/../lib/gcc/sh-coff/3.4-GNUSH_v0501\libgcc.a(_mul_df.o)
                0x0602d4a0                __muldf3
 .text          0x0602d770       0x80 c:/saturn/SH_COFF/sh-coff/bin/../lib/gcc/sh-coff/3.4-GNUSH_v0501\libgcc.a(_df_to_si.o)
                0x0602d770                __fixdfsi
 .text          0x0602d7f0      0x220 c:/saturn/SH_COFF/sh-coff/bin/../lib/gcc/sh-coff/3.4-GNUSH_v0501\libgcc.a(_pack_df.o)
                0x0602d800                __pack_d
 .text          0x0602da10      0x120 c:/saturn/SH_COFF/sh-coff/bin/../lib/gcc/sh-coff/3.4-GNUSH_v0501\libgcc.a(_unpack_df.o)
                0x0602da20                __unpack_d
 .text          0x0602db30       0x20 c:/saturn/SH_COFF/sh-coff/bin/../lib/gcc/sh-coff/3.4-GNUSH_v0501\libgcc.a(_thenan_df.o)
                0x0602db30                __thenan_df
 .text          0x0602db50       0xd0 c:/saturn/SH_COFF/sh-coff/bin/../lib/gcc/sh-coff/3.4-GNUSH_v0501\libgcc.a(_muldi3.o)
                0x0602db50                __muldi3
 .text          0x0602dc20       0x80 c:/saturn/SH_COFF/sh-coff/bin/../lib/gcc/sh-coff/3.4-GNUSH_v0501\libgcc.a(_lshrdi3.o)
                0x0602dc20                __lshrdi3
 .text          0x0602dca0       0x80 c:/saturn/SH_COFF/sh-coff/bin/../lib/gcc/sh-coff/3.4-GNUSH_v0501\libgcc.a(_ashldi3.o)
                0x0602dca0                __ashldi3
 .text          0x0602dd20       0x30 c:/saturn/SH_COFF/sh-coff/bin/../lib/gcc/sh-coff/3.4-GNUSH_v0501\libgcc.a(_mulsi3.o)
                0x0602dd20                __mulsi3
 .text          0x0602dd50       0x90 c:/saturn/SH_COFF/sh-coff/bin/../lib/gcc/sh-coff/3.4-GNUSH_v0501\libgcc.a(_lshiftrt.o)
                0x0602dd50                __lshrsi3
 .text          0x0602dde0       0xa0 c:/saturn/SH_COFF/sh-coff/bin/../lib/gcc/sh-coff/3.4-GNUSH_v0501/../../../../sh-coff/lib\libc.a(memcpy.o)
                0x0602dde0                memcpy
 .text          0x0602de80       0x40 c:/saturn/SH_COFF/sh-coff/bin/../lib/gcc/sh-coff/3.4-GNUSH_v0501/../../../../sh-coff/lib\libc.a(memset.o)
                0x0602de80                memset
 .text          0x0602dec0       0x90 c:/saturn/SH_COFF/sh-coff/bin/../lib/gcc/sh-coff/3.4-GNUSH_v0501/../../../../sh-coff/lib\libc.a(atexit.o)
                0x0602dec0                atexit
 .text          0x0602df50       0x10 c:/saturn/SH_COFF/sh-coff/bin/../lib/gcc/sh-coff/3.4-GNUSH_v0501/../../../../sh-coff/lib\libc.a(impure.o)
                0x0602df50                _global_impure_ptr
 .text          0x0602df60       0x40 c:/saturn/SH_COFF/sh-coff/bin/../lib/gcc/sh-coff/3.4-GNUSH_v0501/../../../../sh-coff/lib\libc.a(malloc.o)
                0x0602df7c                free
                0x0602df60                malloc
 .text          0x0602dfa0      0x5b0 c:/saturn/SH_COFF/sh-coff/bin/../lib/gcc/sh-coff/3.4-GNUSH_v0501/../../../../sh-coff/lib\libc.a(mallocr.o)
                0x0602dfa0                _malloc_r
 .text          0x0602e550      0x340 c:/saturn/SH_COFF/sh-coff/bin/../lib/gcc/sh-coff/3.4-GNUSH_v0501/../../../../sh-coff/lib\libc.a(freer.o)
                0x0602e550                _malloc_trim_r
                0x0602e644                _free_r
 .text          0x0602e890       0x20 c:/saturn/SH_COFF/sh-coff/bin/../lib/gcc/sh-coff/3.4-GNUSH_v0501/../../../../sh-coff/lib\libc.a(mlock.o)
                0x0602e890                __malloc_lock
                0x0602e89c                __malloc_unlock
 .text          0x0602e8b0       0x50 c:/saturn/SH_COFF/sh-coff/bin/../lib/gcc/sh-coff/3.4-GNUSH_v0501/../../../../sh-coff/lib\libc.a(sbrkr.o)
                0x0602e8b0                _sbrk_r
 .text          0x0602e900      0x380 c:/saturn/SH_COFF/sh-coff/bin/../lib/gcc/sh-coff/3.4-GNUSH_v0501/../../../../sh-coff/lib\libc.a(syscalls.o)
                0x0602ea6c                _exit
                0x0602eaa0                _getpid
                0x0602eb08                _utime
                0x0602e938                _write
                0x0602e900                _read
                0x0602ea54                _unlink
                0x0602ea1c                _open
                0x0602eab8                _stat
                0x0602ea60                isatty
                0x0602eb38                _wait
                0x0602ea84                _kill
                0x0602ead4                _chmod
                0x0602eb68                _execv
                0x0602eb4c                _execve
                0x0602ec44                __setup_argv_and_call_main
                0x0602eba0                _gettimeofday
                0x0602e96c                _link
                0x0602eaac                _raise
                0x0602ea38                _creat
                0x0602eb80                _pipe
                0x0602eaec                _chown
                0x0602e91c                _lseek
                0x0602e954                _close
                0x0602eb94                _times
                0x0602ea08                _fstat
                0x0602eb24                _fork
                0x0602e994                _sbrk
 .text          0x0602ec80       0x20 c:/saturn/SH_COFF/sh-coff/bin/../lib/gcc/sh-coff/3.4-GNUSH_v0501/../../../../sh-coff/lib\libc.a(trap.o)
                0x0602ec80                __trap34
 .text          0x0602eca0       0x20 c:/saturn/SH_COFF/sh-coff/bin/../lib/gcc/sh-coff/3.4-GNUSH_v0501/../../../../sh-coff/lib\libc.a(abort.o)
                0x0602eca0                abort
 .text          0x0602ecc0      0x270 c:/saturn/SH_COFF/sh-coff/bin/../lib/gcc/sh-coff/3.4-GNUSH_v0501/../../../../sh-coff/lib\libc.a(signal.o)
                0x0602ed80                _raise_r
                0x0602ef08                __sigtramp
                0x0602eeb4                raise
                0x0602eef0                _init_signal
                0x0602ee40                __sigtramp_r
                0x0602eed0                signal
                0x0602ed0c                _signal_r
                0x0602ecc0                _init_signal_r
 .text          0x0602ef30       0x60 c:/saturn/SH_COFF/sh-coff/bin/../lib/gcc/sh-coff/3.4-GNUSH_v0501/../../../../sh-coff/lib\libc.a(signalr.o)
                0x0602ef78                _getpid_r
                0x0602ef30                _kill_r
 *(.strings)

.tors           0x0602ef90        0x0
                0x0602ef90                ___ctors = .
 *(.ctors)
                0x0602ef90                ___ctors_end = .
                0x0602ef90                ___dtors = .
 *(.dtors)
                0x0602ef90                ___dtors_end = .

.data           0x0602ef90     0x10b0
                0x0602ef90                STARTOF_R = .
 *(.data)
 .data          0x0602ef90      0x400 ../sbl6/segasmp/per/smpclib/per_x1.o
 .data          0x0602f390       0x40 main.o
                0x0602f390                CycleTb
 .data          0x0602f3d0      0x400 ../sbl6/segalib/lib/sega_int.a(int.o)
 .data          0x0602f7d0       0x1c ../sbl6/segalib/lib/sega_spr.a(spr_slv.o)
                0x0602f7d8                SPR_SlaveParam
                0x0602f7e8                SPR_SMPC_SF
                0x0602f7e0                SPR_SMPC_COM
                0x0602f7dc                SPR_SlaveSHEntry
                0x0602f7d4                SPR_SlaveState
                0x0602f7d0                SPR_SlaveCommand
                0x0602f7e4                SPR_SMPC_RET
 *fill*         0x0602f7ec        0x4 00
 .data          0x0602f7f0       0x34 ../sbl6/segalib/lib/sega_spr.a(spr_1c.o)
                0x0602f7f0                SpInitialFlag
 *fill*         0x0602f824        0xc 00
 .data          0x0602f830       0x1c ../sbl6/segalib/lib/sega_scl.a(scl_vblv.o)
                0x0602f838                VBInterval
                0x0602f840                ReqDisplayFlag
                0x0602f830                SpFrameChgMode
                0x0602f83c                VBIntervalCounter
                0x0602f834                SpFrameEraseMode
 *fill*         0x0602f84c        0x4 00
 .data          0x0602f850       0x36 ../sbl6/segalib/lib/sega_scl.a(scl_func.o)
                0x0602f860                SclRotregBuff
                0x0602f85c                SclDisplayY
                0x0602f864                SclRotateTableMode
                0x0602f858                SclProcess
                0x0602f854                SclCurSclNum
                0x0602f850                SclLengthLsTbl
                0x0602f85a                SclDisplayX
                0x0602f852                SclLengthCsTbl
 *fill*         0x0602f886        0xa 00
 .data          0x0602f890       0x18 ../sbl6/segalib/lib/sega_scl.a(scl_pri.o)
                0x0602f894                SclRealSpPriNum
                0x0602f8a4                SclRealColOffset
                0x0602f8a0                SclRealBgColMix
                0x0602f89c                SclRealSpColMix
                0x0602f898                SclRealBgPriNum
                0x0602f890                SclRealOtherPri
 *fill*         0x0602f8a8        0x8 00
 .data          0x0602f8b0      0x380 c:/saturn/SH_COFF/sh-coff/bin/../lib/gcc/sh-coff/3.4-GNUSH_v0501/../../../../sh-coff/lib\libc.a(impure.o)
                0x0602fc2c                _impure_ptr
 .data          0x0602fc30      0x410 c:/saturn/SH_COFF/sh-coff/bin/../lib/gcc/sh-coff/3.4-GNUSH_v0501/../../../../sh-coff/lib\libc.a(mallocr.o)
                0x0602fc38                __malloc_av_
                0x0602fc34                __malloc_trim_threshold
                0x0602fc30                __malloc_sbrk_base
                0x06030040                SIZEOF_R = (. - STARTOF_R)
                0x06030040                ENDOF_R = .

.bss            0x06030040     0x50d4
                0x06030040                STARTOF_B = .
 *(.bss)
 .bss           0x06030040       0x10 ../sbl6/segasmp/v_blank/v_blank.o
                0x06030046                PadData2E
                0x06030040                PadData1
                0x06030044                PadData2
                0x06030042                PadData1E
                0x06030048                __port
 .bss           0x06030050       0xd0 ../sbl6/segasmp/per/smpclib/per_x2.o
 .bss           0x06030120     0x3390 main.o
 .bss           0x060334b0       0x6e ../sbl6/segalib/lib/sega_spr.a(spr_2c.o)
 *fill*         0x0603351e        0x2 00
 .bss           0x06033520        0x4 ../sbl6/segalib/lib/sega_scl.a(scl_vblv.o)
 *fill*         0x06033524        0xc 00
 .bss           0x06033530        0x4 ../sbl6/segalib/lib/sega_scl.a(scl_func.o)
 *fill*         0x06033534        0xc 00
 .bss           0x06033540       0x48 ../sbl6/segalib/lib/sega_scl.a(scl_ro00.o)
 *fill*         0x06033588        0x8 00
 .bss           0x06033590       0x9c ../sbl6/segalib/lib/sega_per.a(per_prt.o)
 *fill*         0x0603362c        0x4 00
 .bss           0x06033630        0xc ../sbl6/segalib/lib/sega_sat.a(DMA_SCU1.o)
 *fill*         0x0603363c        0x4 00
 .bss           0x06033640       0x20 ../sbl6/segalib/lib/sega_sat.a(DMA_SCU0.o)
 .bss           0x06033660       0x10 c:/saturn/SH_COFF/sh-coff/bin/../lib/gcc/sh-coff/3.4-GNUSH_v0501\libgcc.a(__main.o)
 .bss           0x06033670       0x10 c:/saturn/SH_COFF/sh-coff/bin/../lib/gcc/sh-coff/3.4-GNUSH_v0501/../../../../sh-coff/lib\libc.a(atexit.o)
 .bss           0x06033680       0x40 c:/saturn/SH_COFF/sh-coff/bin/../lib/gcc/sh-coff/3.4-GNUSH_v0501/../../../../sh-coff/lib\libc.a(mallocr.o)
                0x060336b0                __malloc_top_pad
                0x06033680                __malloc_current_mallinfo
                0x060336ac                __malloc_max_sbrked_mem
                0x060336a8                __malloc_max_total_mem
 .bss           0x060336c0       0x10 c:/saturn/SH_COFF/sh-coff/bin/../lib/gcc/sh-coff/3.4-GNUSH_v0501/../../../../sh-coff/lib\libc.a(syscalls.o)
 *(COMMON)
 COMMON         0x060336d0      0x400 ../sbl6/segalib/lib/sega_int.a(int.o)
                                  0x0 (size before relaxing)
                0x060336d0                __interrupt_vector
 COMMON         0x06033ad0       0x50 ../sbl6/segalib/lib/sega_spr.a(spr_2c.o)
                                  0x0 (size before relaxing)
                0x06033ad0                SpMstCmd
                0x06033ad4                Sp2OpenFlag
                0x06033ad8                SpGourTblMax
                0x06033adc                SpDrawPrtyBlk
                0x06033ae0                SpLCoordX
                0x06033ae4                SpMstDrawPrtyBlk
                0x06033ae8                SpGourTbl
                0x06033aec                SpLookupTblR
                0x06033af0                SpCmdTbl
                0x06033af4                SpCharMax
                0x06033af8                SpDrawPrtyProcFlag
                0x06033afc                SpCmdNo
                0x06033b00                SpDrawPrtyBlkMax
                0x06033b04                SpSlvCmdPos
                0x06033b08                SpSlvDrawPrtyBlk
                0x06033b0c                SpCharTbl
                0x06033b10                SpCmdTblR
                0x06033b14                SpMstCmdPos
                0x06033b18                SpSlvCmd
                0x06033b1c                SpLCoordY
 COMMON         0x06033b20       0x10 ../sbl6/segalib/lib/sega_spr.a(spr_1c.o)
                                  0x0 (size before relaxing)
                0x06033b20                SpScreenY
                0x06033b24                SpFbcrMode
                0x06033b26                SpDil
                0x06033b28                SpDie
                0x06033b2a                SpTvMode
                0x06033b2c                SpScreenX
 COMMON         0x06033b30      0xf00 ../sbl6/segalib/lib/sega_scl.a(scl_func.o)
                                  0x0 (size before relaxing)
                0x06033b30                SclRbgKtbAddr
                0x06033b38                SclRb
                0x06033b3a                Scl_flag
                0x06033b40                SclK_TableBuff
                0x06034810                SclAddrCsTbl
                0x06034820                Scl_s_reg
                0x06034848                SclRotateXy
                0x06034850                Scl_d_reg
                0x06034898                SclRotateDisp
                0x060348a0                SclRotateMoveZ
                0x060348a8                SclRotXySw
                0x060348b0                Scl_r_reg
                0x060348c0                SclRPMD
                0x060348c8                SclRbgKtbOffset
                0x060348d0                _SclRotregBuff
                0x060349a0                SclRa
                0x060349a8                SclRotateZ
                0x060349b0                SclAddrLsTbl
                0x060349b8                SclK_TableNum
                0x060349c0                SclRotateTableAddress
                0x060349c4                SclK_TableFlag
                0x060349d0                Scl_w_reg
                0x060349f0                Scl_n_reg
 COMMON         0x06034a30      0x6b0 ../sbl6/segalib/lib/sega_scl.a(scl_pri.o)
                                  0x0 (size before relaxing)
                0x06034a30                SclAutoEndBlue2
                0x06034a40                SclColOffset
                0x06034a50                SclPriBuffDirty
                0x06034a52                SclAutoEndRed
                0x06034a54                SclAutoSurface
                0x06034a58                SclAutoGreen
                0x06034a5a                SclAutoEndGreen
                0x06034a5c                SclAutoCount
                0x06034a60                SclColRamAlloc256
                0x06034a80                SclAutoCurRate
                0x06034a81                SclAutoPlusFlag
                0x06034a88                SclSpColMix
                0x06034a90                SclAutoMax
                0x06034a94                SclLineColRamOffset
                0x06034a98                SclColRamAlloc2048
                0x06034a9c                SclBgPriNum
                0x06034aa2                SclAutoEndBlue
                0x06034aa4                SclAutoEndGreen2
                0x06034aa6                SclAutoVeFlag
                0x06034aa8                SclBgColMix
                0x06034ab0                SclAutoIndex
                0x06034ab4                SclAutoEndRate
                0x06034ab6                SclAutoBlue
                0x06034ab8                SclAutoRed
                0x06034abc                SclAutoInterval
                0x06034ac0                SclOtherPri
                0x06034ad0                SclAutoRGB
                0x060350d0                SclAutoEndRed2
                0x060350d8                SclSpPriNum
 COMMON         0x060350e0       0x10 ../sbl6/segalib/lib/sega_scl.a(scl_ro00.o)
                                  0x0 (size before relaxing)
                0x060350e0                SclCsx
                0x060350e8                SclCsy
 COMMON         0x060350f0       0x15 ../sbl6/segalib/lib/sega_per.a(per_prt.o)
                                  0x0 (size before relaxing)
                0x060350f0                per_get_time_flg
                0x060350f1                per_hot_res
                0x060350f2                per_set_sys_flg
                0x060350f4                per_get_time_adr
                0x060350f8                per_get_sys_data
                0x06035104                per_time_out_flg
 *fill*         0x06035105        0xb 00
 COMMON         0x06035110        0x4 c:/saturn/SH_COFF/sh-coff/bin/../lib/gcc/sh-coff/3.4-GNUSH_v0501/../../../../sh-coff/lib\libc.a(syscalls.o)
                                  0x0 (size before relaxing)
                0x06035110                errno
                0x06035114                SIZEOF_B = (. - STARTOF_B)
                0x06035114                ENDOF_B = .
                0x06035114                _end = .
OUTPUT(main.cof coff-sh)

.comment        0x06035120      0x380
 .comment       0x06035120       0x20 ../sbl6/segasmp/lib/strt2_g.o
 .comment       0x06035140       0x20 ../sbl6/segasmp/v_blank/set_vb.o
 .comment       0x06035160       0x20 ../sbl6/segasmp/v_blank/v_blank.o
 .comment       0x06035180       0x20 ../sbl6/segasmp/per/smpclib/per_x1.o
 .comment       0x060351a0       0x20 ../sbl6/segasmp/per/smpclib/per_x2.o
 .comment       0x060351c0       0x20 sprite.o
 .comment       0x060351e0       0x20 main.o
 .comment       0x06035200       0x20 c:/saturn/SH_COFF/sh-coff/bin/../lib/gcc/sh-coff/3.4-GNUSH_v0501\libgcc.a(__main.o)
 .comment       0x06035220       0x20 c:/saturn/SH_COFF/sh-coff/bin/../lib/gcc/sh-coff/3.4-GNUSH_v0501\libgcc.a(_si_to_df.o)
 .comment       0x06035240       0x20 c:/saturn/SH_COFF/sh-coff/bin/../lib/gcc/sh-coff/3.4-GNUSH_v0501\libgcc.a(_mul_df.o)
 .comment       0x06035260       0x20 c:/saturn/SH_COFF/sh-coff/bin/../lib/gcc/sh-coff/3.4-GNUSH_v0501\libgcc.a(_df_to_si.o)
 .comment       0x06035280       0x20 c:/saturn/SH_COFF/sh-coff/bin/../lib/gcc/sh-coff/3.4-GNUSH_v0501\libgcc.a(_pack_df.o)
 .comment       0x060352a0       0x20 c:/saturn/SH_COFF/sh-coff/bin/../lib/gcc/sh-coff/3.4-GNUSH_v0501\libgcc.a(_unpack_df.o)
 .comment       0x060352c0       0x20 c:/saturn/SH_COFF/sh-coff/bin/../lib/gcc/sh-coff/3.4-GNUSH_v0501\libgcc.a(_thenan_df.o)
 .comment       0x060352e0       0x20 c:/saturn/SH_COFF/sh-coff/bin/../lib/gcc/sh-coff/3.4-GNUSH_v0501\libgcc.a(_muldi3.o)
 .comment       0x06035300       0x20 c:/saturn/SH_COFF/sh-coff/bin/../lib/gcc/sh-coff/3.4-GNUSH_v0501\libgcc.a(_lshrdi3.o)
 .comment       0x06035320       0x20 c:/saturn/SH_COFF/sh-coff/bin/../lib/gcc/sh-coff/3.4-GNUSH_v0501\libgcc.a(_ashldi3.o)
 .comment       0x06035340       0x20 c:/saturn/SH_COFF/sh-coff/bin/../lib/gcc/sh-coff/3.4-GNUSH_v0501/../../../../sh-coff/lib\libc.a(atexit.o)
 .comment       0x06035360       0x20 c:/saturn/SH_COFF/sh-coff/bin/../lib/gcc/sh-coff/3.4-GNUSH_v0501/../../../../sh-coff/lib\libc.a(impure.o)
 .comment       0x06035380       0x20 c:/saturn/SH_COFF/sh-coff/bin/../lib/gcc/sh-coff/3.4-GNUSH_v0501/../../../../sh-coff/lib\libc.a(malloc.o)
 .comment       0x060353a0       0x20 c:/saturn/SH_COFF/sh-coff/bin/../lib/gcc/sh-coff/3.4-GNUSH_v0501/../../../../sh-coff/lib\libc.a(mallocr.o)
 .comment       0x060353c0       0x20 c:/saturn/SH_COFF/sh-coff/bin/../lib/gcc/sh-coff/3.4-GNUSH_v0501/../../../../sh-coff/lib\libc.a(freer.o)
 .comment       0x060353e0       0x20 c:/saturn/SH_COFF/sh-coff/bin/../lib/gcc/sh-coff/3.4-GNUSH_v0501/../../../../sh-coff/lib\libc.a(mlock.o)
 .comment       0x06035400       0x20 c:/saturn/SH_COFF/sh-coff/bin/../lib/gcc/sh-coff/3.4-GNUSH_v0501/../../../../sh-coff/lib\libc.a(sbrkr.o)
 .comment       0x06035420       0x20 c:/saturn/SH_COFF/sh-coff/bin/../lib/gcc/sh-coff/3.4-GNUSH_v0501/../../../../sh-coff/lib\libc.a(syscalls.o)
 .comment       0x06035440       0x20 c:/saturn/SH_COFF/sh-coff/bin/../lib/gcc/sh-coff/3.4-GNUSH_v0501/../../../../sh-coff/lib\libc.a(abort.o)
 .comment       0x06035460       0x20 c:/saturn/SH_COFF/sh-coff/bin/../lib/gcc/sh-coff/3.4-GNUSH_v0501/../../../../sh-coff/lib\libc.a(signal.o)
 .comment       0x06035480       0x20 c:/saturn/SH_COFF/sh-coff/bin/../lib/gcc/sh-coff/3.4-GNUSH_v0501/../../../../sh-coff/lib\libc.a(signalr.o)
